; Function Attrs: mustprogress uwtable
define dso_local void @_ZN6spdlog14default_loggerEv(ptr dead_on_unwind noalias writable writeonly sret(%"class.std::shared_ptr.36") align 8 captures(none) %0) local_unnamed_addr #6 personality ptr @__gxx_personality_v0 {
  %2 = load atomic i8, ptr @_ZGVZN6spdlog7details8registry8instanceEvE10s_instance acquire, align 8
  %3 = icmp eq i8 %2, 0
  br i1 %3, label %4, label %_ZN6spdlog7details8registry8instanceEv.exit, !prof !79

4:                                                ; preds = %1
  %5 = tail call i32 @__cxa_guard_acquire(ptr nonnull @_ZGVZN6spdlog7details8registry8instanceEvE10s_instance) #37
  %.not.i = icmp eq i32 %5, 0
  br i1 %.not.i, label %_ZN6spdlog7details8registry8instanceEv.exit, label %6

6:                                                ; preds = %4
  invoke void @_ZN6spdlog7details8registryC2Ev(ptr noundef nonnull align 8 dereferenceable(336) @_ZZN6spdlog7details8registry8instanceEvE10s_instance)
          to label %7 unwind label %9

7:                                                ; preds = %6
  %8 = tail call i32 @__cxa_atexit(ptr nonnull @_ZN6spdlog7details8registryD2Ev, ptr nonnull @_ZZN6spdlog7details8registry8instanceEvE10s_instance, ptr nonnull @__dso_handle) #37
  tail call void @__cxa_guard_release(ptr nonnull @_ZGVZN6spdlog7details8registry8instanceEvE10s_instance) #37
  br label %_ZN6spdlog7details8registry8instanceEv.exit

9:                                                ; preds = %6
  %10 = landingpad { ptr, i32 }
          cleanup
  tail call void @__cxa_guard_abort(ptr nonnull @_ZGVZN6spdlog7details8registry8instanceEvE10s_instance) #37
  resume { ptr, i32 } %10

_ZN6spdlog7details8registry8instanceEv.exit:      ; preds = %1, %4, %7
  tail call void @llvm.experimental.noalias.scope.decl(metadata !606)
  %11 = tail call noundef i32 @pthread_mutex_lock(ptr noundef nonnull align 8 dereferenceable(40) @_ZZN6spdlog7details8registry8instanceEvE10s_instance) #37, !noalias !606
  %.not.i.i.i = icmp eq i32 %11, 0
  br i1 %.not.i.i.i, label %_ZNSt10lock_guardISt5mutexEC2ERS0_.exit.i, label %12

12:                                               ; preds = %_ZN6spdlog7details8registry8instanceEv.exit
  tail call void @_ZSt20__throw_system_errori(i32 noundef %11) #43, !noalias !606
  unreachable

_ZNSt10lock_guardISt5mutexEC2ERS0_.exit.i:        ; preds = %_ZN6spdlog7details8registry8instanceEv.exit
  %13 = load ptr, ptr getelementptr inbounds nuw (i8, ptr @_ZZN6spdlog7details8registry8instanceEvE10s_instance, i64 304), align 8, !tbaa !158, !noalias !606
  store ptr %13, ptr %0, align 8, !tbaa !158, !alias.scope !606
  %14 = getelementptr inbounds nuw i8, ptr %0, i64 8
  %15 = load ptr, ptr getelementptr inbounds nuw (i8, ptr @_ZZN6spdlog7details8registry8instanceEvE10s_instance, i64 312), align 8, !tbaa !151, !noalias !606
  store ptr %15, ptr %14, align 8, !tbaa !151, !alias.scope !606
  %.not.i.i.i.i = icmp eq ptr %15, null
  br i1 %.not.i.i.i.i, label %_ZN6spdlog7details8registry14default_loggerEv.exit, label %16

16:                                               ; preds = %_ZNSt10lock_guardISt5mutexEC2ERS0_.exit.i
  %17 = getelementptr inbounds nuw i8, ptr %15, i64 8
  %18 = load i8, ptr @__libc_single_threaded, align 1, !tbaa !17, !noalias !606
  %.not.i.i.i.i.i = icmp eq i8 %18, 0
  br i1 %.not.i.i.i.i.i, label %22, label %19

19:                                               ; preds = %16
  %20 = load i32, ptr %17, align 4, !tbaa !54, !noalias !606
  %21 = add nsw i32 %20, 1
  store i32 %21, ptr %17, align 4, !tbaa !54, !noalias !606
  br label %_ZN6spdlog7details8registry14default_loggerEv.exit

22:                                               ; preds = %16
  %23 = atomicrmw volatile add ptr %17, i32 1 acq_rel, align 4, !noalias !606
  br label %_ZN6spdlog7details8registry14default_loggerEv.exit

_ZN6spdlog7details8registry14default_loggerEv.exit: ; preds = %_ZNSt10lock_guardISt5mutexEC2ERS0_.exit.i, %19, %22
  %24 = tail call noundef i32 @pthread_mutex_unlock(ptr noundef nonnull align 8 dereferenceable(40) @_ZZN6spdlog7details8registry8instanceEvE10s_instance) #37, !noalias !606
  ret void
}